; Function Attrs: mustprogress uwtable
define dso_local void @_ZN4absl24synchronization_internal12StdcppWaiter4PostEv(ptr noundef nonnull align 8 dereferenceable(96) %0) local_unnamed_addr #2 align 2 personality ptr @__gxx_personality_v0 {
  %2 = tail call noundef i32 @pthread_mutex_lock(ptr noundef nonnull align 8 dereferenceable(40) %0) #7
  %.not.i.i = icmp eq i32 %2, 0
  br i1 %.not.i.i, label %_ZNSt10lock_guardISt5mutexEC2ERS0_.exit, label %3

3:                                                ; preds = %1
  tail call void @_ZSt20__throw_system_errori(i32 noundef %2) #8
  unreachable

_ZNSt10lock_guardISt5mutexEC2ERS0_.exit:          ; preds = %1
  %4 = getelementptr inbounds nuw i8, ptr %0, i64 92
  %5 = load i32, ptr %4, align 4, !tbaa !13
  %6 = add nsw i32 %5, 1
  store i32 %6, ptr %4, align 4, !tbaa !13
  %7 = getelementptr inbounds nuw i8, ptr %0, i64 88
  %8 = load i32, ptr %7, align 8, !tbaa !4
  %.not.i = icmp eq i32 %8, 0
  br i1 %.not.i, label %_ZN4absl24synchronization_internal12StdcppWaiter19InternalCondVarPokeEv.exit, label %9

9:                                                ; preds = %_ZNSt10lock_guardISt5mutexEC2ERS0_.exit
  %10 = getelementptr inbounds nuw i8, ptr %0, i64 40
  tail call void @_ZNSt18condition_variable10notify_oneEv(ptr noundef nonnull align 8 dereferenceable(48) %10) #7
  br label %_ZN4absl24synchronization_internal12StdcppWaiter19InternalCondVarPokeEv.exit

_ZN4absl24synchronization_internal12StdcppWaiter19InternalCondVarPokeEv.exit: ; preds = %_ZNSt10lock_guardISt5mutexEC2ERS0_.exit, %9
  %11 = tail call noundef i32 @pthread_mutex_unlock(ptr noundef nonnull align 8 dereferenceable(40) %0) #7
  ret void
}